target datalayout = "e-m:e-p270:32:32-p271:32:32-p272:64:64-i64:64-i128:128-f80:128-n8:16:32:64-S128"
target triple = "x86_64-pc-linux-gnu"

%struct.dynhds = type { ptr, i64, i64, i64, i64, i64, i32 }
%struct.dynhds_entry = type { ptr, ptr, i64, i64 }

@Curl_cfree = external global ptr, align 8
@Curl_ccalloc = external global ptr, align 8

; Function Attrs: nounwind uwtable
define internal void @entry_free(ptr noundef %0) #0 {
  %2 = alloca ptr, align 8
  store ptr %0, ptr %2, align 8, !tbaa !20
  %3 = load ptr, ptr @Curl_cfree, align 8, !tbaa !24
  %4 = load ptr, ptr %2, align 8, !tbaa !20
  call void %3(ptr noundef %4)
  ret void
}

; Function Attrs: nounwind uwtable
define internal ptr @entry_new(ptr noundef %0, i64 noundef %1, ptr noundef %2, i64 noundef %3, i32 noundef %4) #0 {
  %6 = alloca ptr, align 8
  %7 = alloca ptr, align 8
  %8 = alloca i64, align 8
  %9 = alloca ptr, align 8
  %10 = alloca i64, align 8
  %11 = alloca i32, align 4
  %12 = alloca ptr, align 8
  %13 = alloca ptr, align 8
  %14 = alloca i32, align 4
  store ptr %0, ptr %7, align 8, !tbaa !27
  store i64 %1, ptr %8, align 8, !tbaa !8
  store ptr %2, ptr %9, align 8, !tbaa !27
  store i64 %3, ptr %10, align 8, !tbaa !8
  store i32 %4, ptr %11, align 4, !tbaa !26
  call void @llvm.lifetime.start.p0(i64 8, ptr %12) #5
  call void @llvm.lifetime.start.p0(i64 8, ptr %13) #5
  br label %15

15:                                               ; preds = %5
  br label %16

16:                                               ; preds = %15
  br label %17

17:                                               ; preds = %16
  br label %18

18:                                               ; preds = %17
  br label %19

19:                                               ; preds = %18
  br label %20

20:                                               ; preds = %19
  %21 = load ptr, ptr @Curl_ccalloc, align 8, !tbaa !24
  %22 = load i64, ptr %8, align 8, !tbaa !8
  %23 = add i64 32, %22
  %24 = load i64, ptr %10, align 8, !tbaa !8
  %25 = add i64 %23, %24
  %26 = add i64 %25, 2
  %27 = call ptr %21(i64 noundef 1, i64 noundef %26)
  store ptr %27, ptr %12, align 8, !tbaa !20
  %28 = load ptr, ptr %12, align 8, !tbaa !20
  %29 = icmp ne ptr %28, null
  br i1 %29, label %31, label %30

30:                                               ; preds = %20
  store ptr null, ptr %6, align 8
  store i32 1, ptr %14, align 4
  br label %69

31:                                               ; preds = %20
  %32 = load ptr, ptr %12, align 8, !tbaa !20
  %33 = getelementptr inbounds nuw i8, ptr %32, i64 32
  store ptr %33, ptr %13, align 8, !tbaa !27
  %34 = load ptr, ptr %12, align 8, !tbaa !20
  %35 = getelementptr inbounds nuw %struct.dynhds_entry, ptr %34, i32 0, i32 0
  store ptr %33, ptr %35, align 8, !tbaa !31
  %36 = load ptr, ptr %13, align 8, !tbaa !27
  %37 = load ptr, ptr %7, align 8, !tbaa !27
  %38 = load i64, ptr %8, align 8, !tbaa !8
  call void @llvm.memcpy.p0.p0.i64(ptr align 1 %36, ptr align 1 %37, i64 %38, i1 false)
  %39 = load i64, ptr %8, align 8, !tbaa !8
  %40 = load ptr, ptr %12, align 8, !tbaa !20
  %41 = getelementptr inbounds nuw %struct.dynhds_entry, ptr %40, i32 0, i32 2
  store i64 %39, ptr %41, align 8, !tbaa !29
  %42 = load i64, ptr %8, align 8, !tbaa !8
  %43 = add i64 %42, 1
  %44 = load ptr, ptr %13, align 8, !tbaa !27
  %45 = getelementptr inbounds nuw i8, ptr %44, i64 %43
  store ptr %45, ptr %13, align 8, !tbaa !27
  %46 = load ptr, ptr %12, align 8, !tbaa !20
  %47 = getelementptr inbounds nuw %struct.dynhds_entry, ptr %46, i32 0, i32 1
  store ptr %45, ptr %47, align 8, !tbaa !34
  %48 = load ptr, ptr %13, align 8, !tbaa !27
  %49 = load ptr, ptr %9, align 8, !tbaa !27
  %50 = load i64, ptr %10, align 8, !tbaa !8
  call void @llvm.memcpy.p0.p0.i64(ptr align 1 %48, ptr align 1 %49, i64 %50, i1 false)
  %51 = load i64, ptr %10, align 8, !tbaa !8
  %52 = load ptr, ptr %12, align 8, !tbaa !20
  %53 = getelementptr inbounds nuw %struct.dynhds_entry, ptr %52, i32 0, i32 3
  store i64 %51, ptr %53, align 8, !tbaa !35
  %54 = load i32, ptr %11, align 4, !tbaa !26
  %55 = and i32 %54, 1
  %56 = icmp ne i32 %55, 0
  br i1 %56, label %57, label %67

57:                                               ; preds = %31
  %58 = load ptr, ptr %12, align 8, !tbaa !20
  %59 = getelementptr inbounds nuw %struct.dynhds_entry, ptr %58, i32 0, i32 0
  %60 = load ptr, ptr %59, align 8, !tbaa !31
  %61 = load ptr, ptr %12, align 8, !tbaa !20
  %62 = getelementptr inbounds nuw %struct.dynhds_entry, ptr %61, i32 0, i32 0
  %63 = load ptr, ptr %62, align 8, !tbaa !31
  %64 = load ptr, ptr %12, align 8, !tbaa !20
  %65 = getelementptr inbounds nuw %struct.dynhds_entry, ptr %64, i32 0, i32 2
  %66 = load i64, ptr %65, align 8, !tbaa !29
  call void @Curl_strntolower(ptr noundef %60, ptr noundef %63, i64 noundef %66)
  br label %67

67:                                               ; preds = %57, %31
  %68 = load ptr, ptr %12, align 8, !tbaa !20
  store ptr %68, ptr %6, align 8
  store i32 1, ptr %14, align 4
  br label %69

69:                                               ; preds = %67, %30
  call void @llvm.lifetime.end.p0(i64 8, ptr %13) #5
  call void @llvm.lifetime.end.p0(i64 8, ptr %12) #5
  %70 = load ptr, ptr %6, align 8
  ret ptr %70
}

; Function Attrs: nounwind uwtable
define hidden i32 @Curl_dynhds_add(ptr noundef %0, ptr noundef %1, i64 noundef %2, ptr noundef %3, i64 noundef %4) #0 {
  %6 = alloca i32, align 4
  %7 = alloca ptr, align 8
  %8 = alloca ptr, align 8
  %9 = alloca i64, align 8
  %10 = alloca ptr, align 8
  %11 = alloca i64, align 8
  %12 = alloca ptr, align 8
  %13 = alloca i32, align 4
  %14 = alloca i32, align 4
  %15 = alloca i64, align 8
  %16 = alloca ptr, align 8
  store ptr %0, ptr %7, align 8, !tbaa !3
  store ptr %1, ptr %8, align 8, !tbaa !27
  store i64 %2, ptr %9, align 8, !tbaa !8
  store ptr %3, ptr %10, align 8, !tbaa !27
  store i64 %4, ptr %11, align 8, !tbaa !8
  call void @llvm.lifetime.start.p0(i64 8, ptr %12) #5
  store ptr null, ptr %12, align 8, !tbaa !20
  call void @llvm.lifetime.start.p0(i64 4, ptr %13) #5
  store i32 27, ptr %13, align 4, !tbaa !26
  br label %17

17:                                               ; preds = %5
  br label %18

18:                                               ; preds = %17
  br label %19

19:                                               ; preds = %18
  %20 = load ptr, ptr %7, align 8, !tbaa !3
  %21 = getelementptr inbounds nuw %struct.dynhds, ptr %20, i32 0, i32 3
  %22 = load i64, ptr %21, align 8, !tbaa !17
  %23 = icmp ne i64 %22, 0
  br i1 %23, label %24, label %33

24:                                               ; preds = %19
  %25 = load ptr, ptr %7, align 8, !tbaa !3
  %26 = getelementptr inbounds nuw %struct.dynhds, ptr %25, i32 0, i32 1
  %27 = load i64, ptr %26, align 8, !tbaa !16
  %28 = load ptr, ptr %7, align 8, !tbaa !3
  %29 = getelementptr inbounds nuw %struct.dynhds, ptr %28, i32 0, i32 3
  %30 = load i64, ptr %29, align 8, !tbaa !17
  %31 = icmp uge i64 %27, %30
  br i1 %31, label %32, label %33

32:                                               ; preds = %24
  store i32 27, ptr %6, align 4
  store i32 1, ptr %14, align 4
  br label %150

33:                                               ; preds = %24, %19
  %34 = load ptr, ptr %7, align 8, !tbaa !3
  %35 = getelementptr inbounds nuw %struct.dynhds, ptr %34, i32 0, i32 4
  %36 = load i64, ptr %35, align 8, !tbaa !14
  %37 = load i64, ptr %9, align 8, !tbaa !8
  %38 = add i64 %36, %37
  %39 = load i64, ptr %11, align 8, !tbaa !8
  %40 = add i64 %38, %39
  %41 = load ptr, ptr %7, align 8, !tbaa !3
  %42 = getelementptr inbounds nuw %struct.dynhds, ptr %41, i32 0, i32 5
  %43 = load i64, ptr %42, align 8, !tbaa !18
  %44 = icmp ugt i64 %40, %43
  br i1 %44, label %45, label %46

45:                                               ; preds = %33
  store i32 27, ptr %6, align 4
  store i32 1, ptr %14, align 4
  br label %150

46:                                               ; preds = %33
  %47 = load ptr, ptr %8, align 8, !tbaa !27
  %48 = load i64, ptr %9, align 8, !tbaa !8
  %49 = load ptr, ptr %10, align 8, !tbaa !27
  %50 = load i64, ptr %11, align 8, !tbaa !8
  %51 = load ptr, ptr %7, align 8, !tbaa !3
  %52 = getelementptr inbounds nuw %struct.dynhds, ptr %51, i32 0, i32 6
  %53 = load i32, ptr %52, align 8, !tbaa !19
  %54 = call ptr @entry_new(ptr noundef %47, i64 noundef %48, ptr noundef %49, i64 noundef %50, i32 noundef %53)
  store ptr %54, ptr %12, align 8, !tbaa !20
  %55 = load ptr, ptr %12, align 8, !tbaa !20
  %56 = icmp ne ptr %55, null
  br i1 %56, label %58, label %57

57:                                               ; preds = %46
  br label %143

58:                                               ; preds = %46
  %59 = load ptr, ptr %7, align 8, !tbaa !3
  %60 = getelementptr inbounds nuw %struct.dynhds, ptr %59, i32 0, i32 1
  %61 = load i64, ptr %60, align 8, !tbaa !16
  %62 = add i64 %61, 1
  %63 = load ptr, ptr %7, align 8, !tbaa !3
  %64 = getelementptr inbounds nuw %struct.dynhds, ptr %63, i32 0, i32 2
  %65 = load i64, ptr %64, align 8, !tbaa !15
  %66 = icmp uge i64 %62, %65
  br i1 %66, label %67, label %126

67:                                               ; preds = %58
  call void @llvm.lifetime.start.p0(i64 8, ptr %15) #5
  %68 = load ptr, ptr %7, align 8, !tbaa !3
  %69 = getelementptr inbounds nuw %struct.dynhds, ptr %68, i32 0, i32 1
  %70 = load i64, ptr %69, align 8, !tbaa !16
  %71 = add i64 %70, 16
  store i64 %71, ptr %15, align 8, !tbaa !8
  call void @llvm.lifetime.start.p0(i64 8, ptr %16) #5
  %72 = load ptr, ptr %7, align 8, !tbaa !3
  %73 = getelementptr inbounds nuw %struct.dynhds, ptr %72, i32 0, i32 3
  %74 = load i64, ptr %73, align 8, !tbaa !17
  %75 = icmp ne i64 %74, 0
  br i1 %75, label %76, label %86

76:                                               ; preds = %67
  %77 = load i64, ptr %15, align 8, !tbaa !8
  %78 = load ptr, ptr %7, align 8, !tbaa !3
  %79 = getelementptr inbounds nuw %struct.dynhds, ptr %78, i32 0, i32 3
  %80 = load i64, ptr %79, align 8, !tbaa !17
  %81 = icmp ugt i64 %77, %80
  br i1 %81, label %82, label %86

82:                                               ; preds = %76
  %83 = load ptr, ptr %7, align 8, !tbaa !3
  %84 = getelementptr inbounds nuw %struct.dynhds, ptr %83, i32 0, i32 3
  %85 = load i64, ptr %84, align 8, !tbaa !17
  store i64 %85, ptr %15, align 8, !tbaa !8
  br label %86

86:                                               ; preds = %82, %76, %67
  %87 = load ptr, ptr @Curl_ccalloc, align 8, !tbaa !24
  %88 = load i64, ptr %15, align 8, !tbaa !8
  %89 = call ptr %87(i64 noundef %88, i64 noundef 8)
  store ptr %89, ptr %16, align 8, !tbaa !33
  %90 = load ptr, ptr %16, align 8, !tbaa !33
  %91 = icmp ne ptr %90, null
  br i1 %91, label %93, label %92

92:                                               ; preds = %86
  store i32 4, ptr %14, align 4
  br label %123

93:                                               ; preds = %86
  %94 = load ptr, ptr %7, align 8, !tbaa !3
  %95 = getelementptr inbounds nuw %struct.dynhds, ptr %94, i32 0, i32 0
  %96 = load ptr, ptr %95, align 8, !tbaa !10
  %97 = icmp ne ptr %96, null
  br i1 %97, label %98, label %116

98:                                               ; preds = %93
  %99 = load ptr, ptr %16, align 8, !tbaa !33
  %100 = load ptr, ptr %7, align 8, !tbaa !3
  %101 = getelementptr inbounds nuw %struct.dynhds, ptr %100, i32 0, i32 0
  %102 = load ptr, ptr %101, align 8, !tbaa !10
  %103 = load ptr, ptr %7, align 8, !tbaa !3
  %104 = getelementptr inbounds nuw %struct.dynhds, ptr %103, i32 0, i32 1
  %105 = load i64, ptr %104, align 8, !tbaa !16
  %106 = mul i64 %105, 8
  call void @llvm.memcpy.p0.p0.i64(ptr align 8 %99, ptr align 8 %102, i64 %106, i1 false)
  br label %107

107:                                              ; preds = %98
  %108 = load ptr, ptr @Curl_cfree, align 8, !tbaa !24
  %109 = load ptr, ptr %7, align 8, !tbaa !3
  %110 = getelementptr inbounds nuw %struct.dynhds, ptr %109, i32 0, i32 0
  %111 = load ptr, ptr %110, align 8, !tbaa !10
  call void %108(ptr noundef %111)
  %112 = load ptr, ptr %7, align 8, !tbaa !3
  %113 = getelementptr inbounds nuw %struct.dynhds, ptr %112, i32 0, i32 0
  store ptr null, ptr %113, align 8, !tbaa !10
  br label %114

114:                                              ; preds = %107
  br label %115

115:                                              ; preds = %114
  br label %116

116:                                              ; preds = %115, %93
  %117 = load ptr, ptr %16, align 8, !tbaa !33
  %118 = load ptr, ptr %7, align 8, !tbaa !3
  %119 = getelementptr inbounds nuw %struct.dynhds, ptr %118, i32 0, i32 0
  store ptr %117, ptr %119, align 8, !tbaa !10
  %120 = load i64, ptr %15, align 8, !tbaa !8
  %121 = load ptr, ptr %7, align 8, !tbaa !3
  %122 = getelementptr inbounds nuw %struct.dynhds, ptr %121, i32 0, i32 2
  store i64 %120, ptr %122, align 8, !tbaa !15
  store i32 0, ptr %14, align 4
  br label %123

123:                                              ; preds = %92, %116
  call void @llvm.lifetime.end.p0(i64 8, ptr %16) #5
  call void @llvm.lifetime.end.p0(i64 8, ptr %15) #5
  %124 = load i32, ptr %14, align 4
  switch i32 %124, label %150 [
    i32 0, label %125
    i32 4, label %143
  ]

125:                                              ; preds = %123
  br label %126

126:                                              ; preds = %125, %58
  %127 = load ptr, ptr %12, align 8, !tbaa !20
  %128 = load ptr, ptr %7, align 8, !tbaa !3
  %129 = getelementptr inbounds nuw %struct.dynhds, ptr %128, i32 0, i32 0
  %130 = load ptr, ptr %129, align 8, !tbaa !10
  %131 = load ptr, ptr %7, align 8, !tbaa !3
  %132 = getelementptr inbounds nuw %struct.dynhds, ptr %131, i32 0, i32 1
  %133 = load i64, ptr %132, align 8, !tbaa !16
  %134 = add i64 %133, 1
  store i64 %134, ptr %132, align 8, !tbaa !16
  %135 = getelementptr inbounds nuw ptr, ptr %130, i64 %133
  store ptr %127, ptr %135, align 8, !tbaa !20
  store ptr null, ptr %12, align 8, !tbaa !20
  %136 = load i64, ptr %9, align 8, !tbaa !8
  %137 = load i64, ptr %11, align 8, !tbaa !8
  %138 = add i64 %136, %137
  %139 = load ptr, ptr %7, align 8, !tbaa !3
  %140 = getelementptr inbounds nuw %struct.dynhds, ptr %139, i32 0, i32 4
  %141 = load i64, ptr %140, align 8, !tbaa !14
  %142 = add i64 %141, %138
  store i64 %142, ptr %140, align 8, !tbaa !14
  store i32 0, ptr %13, align 4, !tbaa !26
  br label %143

143:                                              ; preds = %126, %123, %57
  %144 = load ptr, ptr %12, align 8, !tbaa !20
  %145 = icmp ne ptr %144, null
  br i1 %145, label %146, label %148

146:                                              ; preds = %143
  %147 = load ptr, ptr %12, align 8, !tbaa !20
  call void @entry_free(ptr noundef %147)
  br label %148

148:                                              ; preds = %146, %143
  %149 = load i32, ptr %13, align 4, !tbaa !26
  store i32 %149, ptr %6, align 4
  store i32 1, ptr %14, align 4
  br label %150

150:                                              ; preds = %148, %123, %45, %32
  call void @llvm.lifetime.end.p0(i64 4, ptr %13) #5
  call void @llvm.lifetime.end.p0(i64 8, ptr %12) #5
  %151 = load i32, ptr %6, align 4
  ret i32 %151
}