; Function Attrs: nounwind uwtable
define hidden range(i32 0, 28) i32 @Curl_dynhds_add(ptr noundef captures(none) %0, ptr noundef readonly captures(none) %1, i64 noundef %2, ptr noundef readonly captures(none) %3, i64 noundef %4) local_unnamed_addr #1 {
  %6 = getelementptr inbounds nuw i8, ptr %0, i64 24
  %7 = load i64, ptr %6, align 8, !tbaa !11
  %.not = icmp eq i64 %7, 0
  br i1 %.not, label %11, label %8

8:                                                ; preds = %5
  %9 = getelementptr inbounds nuw i8, ptr %0, i64 8
  %10 = load i64, ptr %9, align 8, !tbaa !15
  %.not52 = icmp ult i64 %10, %7
  br i1 %.not52, label %11, label %entry_new.exit.thread63

11:                                               ; preds = %8, %5
  %12 = getelementptr inbounds nuw i8, ptr %0, i64 32
  %13 = load i64, ptr %12, align 8, !tbaa !3
  %14 = add i64 %4, %2
  %15 = add i64 %14, %13
  %16 = getelementptr inbounds nuw i8, ptr %0, i64 40
  %17 = load i64, ptr %16, align 8, !tbaa !12
  %18 = icmp ugt i64 %15, %17
  br i1 %18, label %entry_new.exit.thread63, label %19

19:                                               ; preds = %11
  %20 = getelementptr inbounds nuw i8, ptr %0, i64 48
  %21 = load i32, ptr %20, align 8, !tbaa !13
  %22 = load ptr, ptr @Curl_ccalloc, align 8, !tbaa !18
  %23 = add i64 %14, 34
  %24 = tail call ptr %22(i64 noundef 1, i64 noundef %23) #9
  %.not.i = icmp eq ptr %24, null
  br i1 %.not.i, label %entry_new.exit.thread63, label %25

25:                                               ; preds = %19
  %26 = getelementptr inbounds nuw i8, ptr %24, i64 32
  store ptr %26, ptr %24, align 8, !tbaa !25
  tail call void @llvm.memcpy.p0.p0.i64(ptr nonnull align 1 %26, ptr readonly align 1 %1, i64 %2, i1 false)
  %27 = getelementptr inbounds nuw i8, ptr %24, i64 16
  store i64 %2, ptr %27, align 8, !tbaa !22
  %28 = getelementptr i8, ptr %26, i64 %2
  %29 = getelementptr i8, ptr %28, i64 1
  %30 = getelementptr inbounds nuw i8, ptr %24, i64 8
  store ptr %29, ptr %30, align 8, !tbaa !27
  tail call void @llvm.memcpy.p0.p0.i64(ptr align 1 %29, ptr readonly align 1 %3, i64 %4, i1 false)
  %31 = getelementptr inbounds nuw i8, ptr %24, i64 24
  store i64 %4, ptr %31, align 8, !tbaa !28
  %32 = and i32 %21, 1
  %.not24.i = icmp eq i32 %32, 0
  br i1 %.not24.i, label %36, label %33

33:                                               ; preds = %25
  %34 = load ptr, ptr %24, align 8, !tbaa !25
  %35 = load i64, ptr %27, align 8, !tbaa !22
  tail call void @Curl_strntolower(ptr noundef %34, ptr noundef %34, i64 noundef %35) #9
  br label %36

36:                                               ; preds = %25, %33
  %37 = getelementptr inbounds nuw i8, ptr %0, i64 8
  %38 = load i64, ptr %37, align 8, !tbaa !15
  %39 = add i64 %38, 1
  %40 = getelementptr inbounds nuw i8, ptr %0, i64 16
  %41 = load i64, ptr %40, align 8, !tbaa !29
  %.not54 = icmp ult i64 %39, %41
  br i1 %.not54, label %._crit_edge, label %42

._crit_edge:                                      ; preds = %36
  %.pre = load ptr, ptr %0, align 8, !tbaa !14
  br label %55

42:                                               ; preds = %36
  %43 = add i64 %38, 16
  %44 = load i64, ptr %6, align 8, !tbaa !11
  %.not55.not = icmp eq i64 %44, 0
  %45 = tail call i64 @llvm.umin.i64(i64 %43, i64 %44)
  %.042 = select i1 %.not55.not, i64 %43, i64 %45
  %46 = load ptr, ptr @Curl_ccalloc, align 8, !tbaa !18
  %47 = tail call ptr %46(i64 noundef %.042, i64 noundef 8) #9
  %.not56 = icmp eq ptr %47, null
  br i1 %.not56, label %entry_new.exit, label %48

48:                                               ; preds = %42
  %49 = load ptr, ptr %0, align 8, !tbaa !14
  %.not57 = icmp eq ptr %49, null
  br i1 %.not57, label %.thread, label %50

50:                                               ; preds = %48
  %51 = load i64, ptr %37, align 8, !tbaa !15
  %52 = shl i64 %51, 3
  tail call void @llvm.memcpy.p0.p0.i64(ptr nonnull align 8 %47, ptr nonnull align 8 %49, i64 %52, i1 false)
  %53 = load ptr, ptr @Curl_cfree, align 8, !tbaa !18
  %54 = load ptr, ptr %0, align 8, !tbaa !14
  tail call void %53(ptr noundef %54) #9
  br label %.thread

.thread:                                          ; preds = %48, %50
  store ptr %47, ptr %0, align 8, !tbaa !14
  store i64 %.042, ptr %40, align 8, !tbaa !29
  %.pre67 = load i64, ptr %37, align 8, !tbaa !15
  %.pre68 = add i64 %.pre67, 1
  br label %55

55:                                               ; preds = %._crit_edge, %.thread
  %.pre-phi = phi i64 [ %39, %._crit_edge ], [ %.pre68, %.thread ]
  %56 = phi i64 [ %38, %._crit_edge ], [ %.pre67, %.thread ]
  %57 = phi ptr [ %.pre, %._crit_edge ], [ %47, %.thread ]
  store i64 %.pre-phi, ptr %37, align 8, !tbaa !15
  %58 = getelementptr inbounds nuw ptr, ptr %57, i64 %56
  store ptr %24, ptr %58, align 8, !tbaa !16
  %59 = load i64, ptr %12, align 8, !tbaa !3
  %60 = add i64 %14, %59
  store i64 %60, ptr %12, align 8, !tbaa !3
  br label %entry_new.exit.thread63

entry_new.exit:                                   ; preds = %42
  %61 = load ptr, ptr @Curl_cfree, align 8, !tbaa !18
  tail call void %61(ptr noundef nonnull %24) #9
  br label %entry_new.exit.thread63

entry_new.exit.thread63:                          ; preds = %19, %55, %entry_new.exit, %11, %8
  %.0 = phi i32 [ 27, %8 ], [ 27, %11 ], [ 27, %entry_new.exit ], [ 27, %19 ], [ 0, %55 ]
  ret i32 %.0
}